target datalayout = "e-m:e-p270:32:32-p271:32:32-p272:64:64-i64:64-i128:128-f80:128-n8:16:32:64-S128"
target triple = "x86_64-pc-linux-gnu"

; Function Attrs: null_pointer_is_valid sspstrong uwtable
define internal i32 @get_pdc_message_len(ptr noundef %0, ptr noundef %1, i32 noundef %2, ptr noundef %3) #0 {
  %5 = alloca ptr, align 8
  %6 = alloca ptr, align 8
  %7 = alloca i32, align 4
  %8 = alloca ptr, align 8
  %9 = alloca i32, align 4
  %10 = alloca i32, align 4
  %11 = alloca i8, align 1
  store ptr %0, ptr %5, align 8
  store ptr %1, ptr %6, align 8
  store i32 %2, ptr %7, align 4
  store ptr %3, ptr %8, align 8
  call void @llvm.lifetime.start.p0(i64 4, ptr %9) #4
  call void @llvm.lifetime.start.p0(i64 4, ptr %10) #4
  call void @llvm.lifetime.start.p0(i64 1, ptr %11) #4
  %12 = load ptr, ptr %6, align 8
  %13 = load i32, ptr %7, align 4
  %14 = add i32 %13, 1
  %15 = call zeroext i8 @tvb_get_uint8(ptr noundef %12, i32 noundef %14)
  store i8 %15, ptr %11, align 1
  %16 = load i8, ptr %11, align 1
  %17 = zext i8 %16 to i32
  switch i32 %17, label %56 [
    i32 1, label %18
    i32 2, label %23
    i32 3, label %28
    i32 4, label %33
    i32 5, label %39
    i32 6, label %45
    i32 8, label %50
  ]

18:                                               ; preds = %4
  %19 = load ptr, ptr %6, align 8
  %20 = load i32, ptr %7, align 4
  %21 = call zeroext i8 @tvb_get_uint8(ptr noundef %19, i32 noundef %20)
  %22 = zext i8 %21 to i32
  store i32 %22, ptr %9, align 4
  store i32 1, ptr %10, align 4
  br label %57

23:                                               ; preds = %4
  %24 = load ptr, ptr %6, align 8
  %25 = load i32, ptr %7, align 4
  %26 = call zeroext i8 @tvb_get_uint8(ptr noundef %24, i32 noundef %25)
  %27 = zext i8 %26 to i32
  store i32 %27, ptr %9, align 4
  store i32 1, ptr %10, align 4
  br label %57

28:                                               ; preds = %4
  %29 = load ptr, ptr %6, align 8
  %30 = load i32, ptr %7, align 4
  %31 = call zeroext i8 @tvb_get_uint8(ptr noundef %29, i32 noundef %30)
  %32 = zext i8 %31 to i32
  store i32 %32, ptr %9, align 4
  store i32 1, ptr %10, align 4
  br label %57

33:                                               ; preds = %4
  %34 = load ptr, ptr %6, align 8
  %35 = load i32, ptr %7, align 4
  %36 = add i32 %35, 2
  %37 = call zeroext i16 @tvb_get_ntohs(ptr noundef %34, i32 noundef %36)
  %38 = zext i16 %37 to i32
  store i32 %38, ptr %9, align 4
  store i32 4, ptr %10, align 4
  br label %57

39:                                               ; preds = %4
  %40 = load ptr, ptr %6, align 8
  %41 = load i32, ptr %7, align 4
  %42 = add i32 %41, 6
  %43 = call zeroext i16 @tvb_get_ntohs(ptr noundef %40, i32 noundef %42)
  %44 = zext i16 %43 to i32
  store i32 %44, ptr %9, align 4
  store i32 8, ptr %10, align 4
  br label %57

45:                                               ; preds = %4
  %46 = load ptr, ptr %6, align 8
  %47 = load i32, ptr %7, align 4
  %48 = call zeroext i8 @tvb_get_uint8(ptr noundef %46, i32 noundef %47)
  %49 = zext i8 %48 to i32
  store i32 %49, ptr %9, align 4
  store i32 1, ptr %10, align 4
  br label %57

50:                                               ; preds = %4
  %51 = load ptr, ptr %6, align 8
  %52 = load i32, ptr %7, align 4
  %53 = call zeroext i8 @tvb_get_uint8(ptr noundef %51, i32 noundef %52)
  %54 = zext i8 %53 to i32
  %55 = add i32 %54, 1
  store i32 %55, ptr %9, align 4
  store i32 0, ptr %10, align 4
  br label %57

56:                                               ; preds = %4
  store i32 0, ptr %9, align 4
  store i32 0, ptr %10, align 4
  br label %57

57:                                               ; preds = %56, %50, %45, %39, %33, %28, %23, %18
  %58 = load i32, ptr %9, align 4
  %59 = load i32, ptr %10, align 4
  %60 = add i32 %58, %59
  call void @llvm.lifetime.end.p0(i64 1, ptr %11) #4
  call void @llvm.lifetime.end.p0(i64 4, ptr %10) #4
  call void @llvm.lifetime.end.p0(i64 4, ptr %9) #4
  ret i32 %60
}