; Function Attrs: null_pointer_is_valid sspstrong uwtable
define internal range(i32 0, 65544) i32 @get_pdc_message_len(ptr readnone captures(none) %0, ptr noundef %1, i32 noundef %2, ptr readnone captures(none) %3) #0 {
  %5 = add i32 %2, 1
  %6 = tail call zeroext i8 @tvb_get_uint8(ptr noundef %1, i32 noundef %5)
  switch i8 %6, label %31 [
    i8 1, label %7
    i8 2, label %10
    i8 3, label %13
    i8 4, label %16
    i8 5, label %20
    i8 6, label %24
    i8 8, label %27
  ]

7:                                                ; preds = %4
  %8 = tail call zeroext i8 @tvb_get_uint8(ptr noundef %1, i32 noundef %2)
  %9 = zext i8 %8 to i32
  br label %31

10:                                               ; preds = %4
  %11 = tail call zeroext i8 @tvb_get_uint8(ptr noundef %1, i32 noundef %2)
  %12 = zext i8 %11 to i32
  br label %31

13:                                               ; preds = %4
  %14 = tail call zeroext i8 @tvb_get_uint8(ptr noundef %1, i32 noundef %2)
  %15 = zext i8 %14 to i32
  br label %31

16:                                               ; preds = %4
  %17 = add i32 %2, 2
  %18 = tail call zeroext i16 @tvb_get_ntohs(ptr noundef %1, i32 noundef %17)
  %19 = zext i16 %18 to i32
  br label %31

20:                                               ; preds = %4
  %21 = add i32 %2, 6
  %22 = tail call zeroext i16 @tvb_get_ntohs(ptr noundef %1, i32 noundef %21)
  %23 = zext i16 %22 to i32
  br label %31

24:                                               ; preds = %4
  %25 = tail call zeroext i8 @tvb_get_uint8(ptr noundef %1, i32 noundef %2)
  %26 = zext i8 %25 to i32
  br label %31

27:                                               ; preds = %4
  %28 = tail call zeroext i8 @tvb_get_uint8(ptr noundef %1, i32 noundef %2)
  %29 = zext i8 %28 to i32
  %30 = add nuw nsw i32 %29, 1
  br label %31

31:                                               ; preds = %4, %27, %24, %20, %16, %13, %10, %7
  %.018 = phi i32 [ 0, %27 ], [ 1, %24 ], [ 8, %20 ], [ 4, %16 ], [ 1, %13 ], [ 1, %10 ], [ 1, %7 ], [ 0, %4 ]
  %.0 = phi i32 [ %30, %27 ], [ %26, %24 ], [ %23, %20 ], [ %19, %16 ], [ %15, %13 ], [ %12, %10 ], [ %9, %7 ], [ 0, %4 ]
  %32 = add nuw nsw i32 %.0, %.018
  ret i32 %32
}